issuer :/C=se/O=Idonex/CN=www.idonex.se/Email=info@idonex.se
subject:/C=se/SP=Earth/O=Anyone/CN=*/Email=info@idonex.se
serial :01

Certificate:
    Data:
        Version: 0 (0x0)
        Serial Number: 1 (0x1)
        Signature Algorithm: md5withRSAEncryption
        Issuer: C=se, O=Idonex, CN=www.idonex.se, Email=info@idonex.se
        Validity
            Not Before: Aug 19 17:59:17 1997 GMT
            Not After : Aug 19 17:59:17 1998 GMT
        Subject: C=se, SP=Earth, O=Anyone, CN=*, Email=info@idonex.se
        Subject Public Key Info:
            Public Key Algorithm: rsaEncryption
                Modulus:
                    00:f0:eb:5a:a1:75:c9:17:01:67:ef:76:36:00:ce:
                    0c:1a:2c:eb:6f:37:79:5f:40:ea:50:2a:99:95:25:
                    9e:c2:c4:5b:4c:21:f5:80:e0:e5:3b:f6:8b:ea:84:
                    66:a0:2c:83:c4:d7:cb:b1:06:97:d9:bb:8c:d7:0a:
                    70:fd:c0:10:97:fb:c6:b6:3b:e7:20:da:ab:9e:e2:
                    9c:c6:4d:b1:37:20:19:43:05:b0:b0:34:43:00:d5:
                    b8:91:dd:ef:86:38:82:8d:ae:91:b8:4c:64:4b:42:
                    da:63:45:e0:f8:b5:bd:1c:57:69:b2:4b:2f:33:3b:
                    26:0e:89:6a:7c:ee:17:35:d3
                Exponent: 65537 (0x10001)
    Signature Algorithm: md5withRSAEncryption
        58:d2:8b:51:01:1b:3d:23:45:23:de:df:e5:19:83:63:48:18:
        91:7c:3b:fb:5c:06:1e:95:3f:dd:1d:c5:d9:33:30:20:f4:65:
        5f:80:36:67:57:33:3f:fa:df:7e:8c:e6:ff:af:fc:75:05:4c:
        56:4c:0d:07:4d:60:ff:c9:3a:63

-----BEGIN CERTIFICATE-----

MIIB4DCCAYoCAQEwDQYJKoZIhvcNAQEEBQAwWDELMAkGA1UEBhMCc2UxEDAOBgNV
BAoTB0luZm92YXYxFzAVBgNVBAMTDnd3dy5pbmZvdmF2LnNlMR4wHAYJKoZIhvcN
AQkBFg9pbmZvQGluZm92YXYuc2UwHhcNOTcwODE5MTc1OTE3WhcNOTgwODE5MTc1
OTE3WjBaMQswCQYDVQQGEwJzZTEOMAwGA1UECBMFRWFydGgxDzANBgNVBAoTBkFu
eW9uZTEKMAgGA1UEAxQBKjEeMBwGCSqGSIb3DQEJARYPaW5mb0BpbmZvdmF2LnNl
MIGfMA0GCSqGSIb3DQEBAQUAA4GNADCBiQKBgQDw61qhdckXAWfvdjYAzgwaLOtv
N3lfQOpQKpmVJZ7CxFtMIfWA4OU79ovqhGagLIPE18uxBpfZu4zXCnD9wBCX+8a2
O+cg2que4pzGTbE3IBlDBbCwNEMA1biR3e+GOIKNrpG4TGRLQtpjReD4tb0cV2my
Sy8zOyYOiWp87hc10wIDAQABMA0GCSqGSIb3DQEBBAUAA0EAWNKLUQEbPSNFI97f
5RmDY0gYkXw7+1wGHpU/3R3F2TMwIPRlX4A2Z1czP/rffozm/6/8dQVMVkwNB01g
/8k6Yw==
-----END CERTIFICATE-----

-----BEGIN RSA PRIVATE KEY-----

MIICXQIBAAKBgQDw61qhdckXAWfvdjYAzgwaLOtvN3lfQOpQKpmVJZ7CxFtMIfWA
4OU79ovqhGagLIPE18uxBpfZu4zXCnD9wBCX+8a2O+cg2que4pzGTbE3IBlDBbCw
NEMA1biR3e+GOIKNrpG4TGRLQtpjReD4tb0cV2mySy8zOyYOiWp87hc10wIDAQAB
AoGAZuPM2AnqsKWMEuvEUoGtD3zBq8TgU/rwVv5qixT/AaVEbHZQWBM0M3Cu/qA/
CAca23Vh65+qOHXtx2URLn3ZV4sd4WJCd6xZG/9rFOB8iXzQjDOVXu4zxrk5uXJ4
Gixn366HCL0g39PtvzVDuLZIVCOWL3vlj4BFAJULM0VPKtkCQQD/SASh71a8etzY
eNptHctkeWzCqxC/7lVX09oTyAwiKEO6aOmGtdI41kBnFbks6k85CGURwn5nrkgY
qYZw9qkVAkEA8Zj8N4aqtfDy/JD2cgKBNJ9XyJK9Hsljb57xUa5ompLGzJN/pQ9H
fEcKjxVQ/GEbZQ+WLPd9rwPA+G8ndEdNRwJBALGqQqcc9mWosIjr20Czyrk7lMkK
21ZonfbJF25K/L7M/Q4AM/6wDgXGfv3/bWfoDojn4cdxcB3ieoTHfyyhTl0CQQCJ
7JKgiGrQr5uogIGRGMj2Z7lPsiXxe3se8BhIT088X2rKw7HtY0mmM1Bd2wd+7Vkc
WsebKDdCQNxbd+mIQmRlAkB2q2Sn0vpVHQTxUuAwYl2JkQ3RxF5G+3dtFC9g0Nlp
0KWf1nFxZlFu83vuDYWmaJbIvX0lWxXiNGYgynE6nabC
-----END RSA PRIVATE KEY-----
